target datalayout = "e-m:e-p270:32:32-p271:32:32-p272:64:64-i64:64-i128:128-f80:128-n8:16:32:64-S128"
target triple = "x86_64-pc-linux-gnu"

%struct.ossl_param_st = type { ptr, i32, ptr, i64, i64 }

@.str.12 = private unnamed_addr constant [5 x i8] c"seed\00", align 1
@lib_ctx = internal global ptr null, align 8
@.str.29 = private unnamed_addr constant [30 x i8] c"../openssl/test/ml_dsa_test.c\00", align 1
@.str.40 = private unnamed_addr constant [11 x i8] c"properties\00", align 1
@.str.41 = private unnamed_addr constant [10 x i8] c"?fips=yes\00", align 1
@.str.42 = private unnamed_addr constant [53 x i8] c"ctx = EVP_PKEY_CTX_new_from_name(lib_ctx, alg, NULL)\00", align 1
@.str.43 = private unnamed_addr constant [26 x i8] c"EVP_PKEY_keygen_init(ctx)\00", align 1
@.str.44 = private unnamed_addr constant [2 x i8] c"1\00", align 1
@.str.45 = private unnamed_addr constant [37 x i8] c"EVP_PKEY_CTX_set_params(ctx, params)\00", align 1
@.str.46 = private unnamed_addr constant [30 x i8] c"EVP_PKEY_generate(ctx, &pkey)\00", align 1

; Function Attrs: nounwind uwtable
define internal ptr @do_gen_key(ptr noundef %0, ptr noundef %1, i64 noundef %2) #0 {
  %4 = alloca ptr, align 8
  %5 = alloca ptr, align 8
  %6 = alloca i64, align 8
  %7 = alloca ptr, align 8
  %8 = alloca ptr, align 8
  %9 = alloca [3 x %struct.ossl_param_st], align 16
  %10 = alloca ptr, align 8
  %11 = alloca %struct.ossl_param_st, align 8
  %12 = alloca %struct.ossl_param_st, align 8
  %13 = alloca %struct.ossl_param_st, align 8
  store ptr %0, ptr %4, align 8, !tbaa !4
  store ptr %1, ptr %5, align 8, !tbaa !4
  store i64 %2, ptr %6, align 8, !tbaa !22
  call void @llvm.lifetime.start.p0(i64 8, ptr %7) #4
  store ptr null, ptr %7, align 8, !tbaa !15
  call void @llvm.lifetime.start.p0(i64 8, ptr %8) #4
  store ptr null, ptr %8, align 8, !tbaa !29
  call void @llvm.lifetime.start.p0(i64 120, ptr %9) #4
  call void @llvm.lifetime.start.p0(i64 8, ptr %10) #4
  %14 = getelementptr inbounds [3 x %struct.ossl_param_st], ptr %9, i64 0, i64 0
  store ptr %14, ptr %10, align 8, !tbaa !33
  %15 = load i64, ptr %6, align 8, !tbaa !22
  %16 = icmp ne i64 %15, 0
  br i1 %16, label %17, label %22

17:                                               ; preds = %3
  %18 = load ptr, ptr %10, align 8, !tbaa !33
  %19 = getelementptr inbounds nuw %struct.ossl_param_st, ptr %18, i32 1
  store ptr %19, ptr %10, align 8, !tbaa !33
  call void @llvm.lifetime.start.p0(i64 40, ptr %11) #4
  %20 = load ptr, ptr %5, align 8, !tbaa !4
  %21 = load i64, ptr %6, align 8, !tbaa !22
  call void @OSSL_PARAM_construct_octet_string(ptr dead_on_unwind writable sret(%struct.ossl_param_st) align 8 %11, ptr noundef @.str.12, ptr noundef %20, i64 noundef %21)
  call void @llvm.memcpy.p0.p0.i64(ptr align 8 %18, ptr align 8 %11, i64 40, i1 false), !tbaa.struct !35
  call void @llvm.lifetime.end.p0(i64 40, ptr %11) #4
  br label %22

22:                                               ; preds = %17, %3
  %23 = load ptr, ptr %10, align 8, !tbaa !33
  %24 = getelementptr inbounds nuw %struct.ossl_param_st, ptr %23, i32 1
  store ptr %24, ptr %10, align 8, !tbaa !33
  call void @llvm.lifetime.start.p0(i64 40, ptr %12) #4
  call void @OSSL_PARAM_construct_utf8_string(ptr dead_on_unwind writable sret(%struct.ossl_param_st) align 8 %12, ptr noundef @.str.40, ptr noundef @.str.41, i64 noundef 0)
  call void @llvm.memcpy.p0.p0.i64(ptr align 8 %23, ptr align 8 %12, i64 40, i1 false), !tbaa.struct !35
  call void @llvm.lifetime.end.p0(i64 40, ptr %12) #4
  %25 = load ptr, ptr %10, align 8, !tbaa !33
  call void @llvm.lifetime.start.p0(i64 40, ptr %13) #4
  call void @OSSL_PARAM_construct_end(ptr dead_on_unwind writable sret(%struct.ossl_param_st) align 8 %13)
  call void @llvm.memcpy.p0.p0.i64(ptr align 8 %25, ptr align 8 %13, i64 40, i1 false), !tbaa.struct !35
  call void @llvm.lifetime.end.p0(i64 40, ptr %13) #4
  %26 = load ptr, ptr @lib_ctx, align 8, !tbaa !43
  %27 = load ptr, ptr %4, align 8, !tbaa !4
  %28 = call ptr @EVP_PKEY_CTX_new_from_name(ptr noundef %26, ptr noundef %27, ptr noundef null)
  store ptr %28, ptr %8, align 8, !tbaa !29
  %29 = call i32 @test_ptr(ptr noundef @.str.29, i32 noundef 42, ptr noundef @.str.42, ptr noundef %28)
  %30 = icmp ne i32 %29, 0
  br i1 %30, label %31, label %47

31:                                               ; preds = %22
  %32 = load ptr, ptr %8, align 8, !tbaa !29
  %33 = call i32 @EVP_PKEY_keygen_init(ptr noundef %32)
  %34 = call i32 @test_int_eq(ptr noundef @.str.29, i32 noundef 43, ptr noundef @.str.43, ptr noundef @.str.44, i32 noundef %33, i32 noundef 1)
  %35 = icmp ne i32 %34, 0
  br i1 %35, label %36, label %47

36:                                               ; preds = %31
  %37 = load ptr, ptr %8, align 8, !tbaa !29
  %38 = getelementptr inbounds [3 x %struct.ossl_param_st], ptr %9, i64 0, i64 0
  %39 = call i32 @EVP_PKEY_CTX_set_params(ptr noundef %37, ptr noundef %38)
  %40 = call i32 @test_int_eq(ptr noundef @.str.29, i32 noundef 44, ptr noundef @.str.45, ptr noundef @.str.44, i32 noundef %39, i32 noundef 1)
  %41 = icmp ne i32 %40, 0
  br i1 %41, label %42, label %47

42:                                               ; preds = %36
  %43 = load ptr, ptr %8, align 8, !tbaa !29
  %44 = call i32 @EVP_PKEY_generate(ptr noundef %43, ptr noundef %7)
  %45 = call i32 @test_int_eq(ptr noundef @.str.29, i32 noundef 45, ptr noundef @.str.46, ptr noundef @.str.44, i32 noundef %44, i32 noundef 1)
  %46 = icmp ne i32 %45, 0
  br i1 %46, label %48, label %47

47:                                               ; preds = %42, %36, %31, %22
  store ptr null, ptr %7, align 8, !tbaa !15
  br label %48

48:                                               ; preds = %47, %42
  %49 = load ptr, ptr %8, align 8, !tbaa !29
  call void @EVP_PKEY_CTX_free(ptr noundef %49)
  %50 = load ptr, ptr %7, align 8, !tbaa !15
  call void @llvm.lifetime.end.p0(i64 8, ptr %10) #4
  call void @llvm.lifetime.end.p0(i64 120, ptr %9) #4
  call void @llvm.lifetime.end.p0(i64 8, ptr %8) #4
  call void @llvm.lifetime.end.p0(i64 8, ptr %7) #4
  ret ptr %50
}