; Function Attrs: nounwind uwtable
define internal fastcc ptr @do_gen_key(ptr noundef %0, ptr noundef %1, i64 noundef %2) unnamed_addr #1 {
  %4 = alloca ptr, align 8
  %5 = alloca [3 x %struct.ossl_param_st], align 16
  %6 = alloca %struct.ossl_param_st, align 8
  %7 = alloca %struct.ossl_param_st, align 8
  call void @llvm.lifetime.start.p0(i64 8, ptr nonnull %4) #5
  store ptr null, ptr %4, align 8, !tbaa !16
  call void @llvm.lifetime.start.p0(i64 120, ptr nonnull %5) #5
  %.not = icmp eq i64 %2, 0
  br i1 %.not, label %10, label %8

8:                                                ; preds = %3
  %9 = getelementptr inbounds nuw i8, ptr %5, i64 40
  call void @OSSL_PARAM_construct_octet_string(ptr dead_on_unwind nonnull writable sret(%struct.ossl_param_st) align 8 %5, ptr noundef nonnull @.str.12, ptr noundef %1, i64 noundef %2) #5
  br label %10

10:                                               ; preds = %8, %3
  %.0 = phi ptr [ %9, %8 ], [ %5, %3 ]
  %11 = getelementptr inbounds nuw i8, ptr %.0, i64 40
  call void @llvm.lifetime.start.p0(i64 40, ptr nonnull %6) #5
  call void @OSSL_PARAM_construct_utf8_string(ptr dead_on_unwind nonnull writable sret(%struct.ossl_param_st) align 8 %6, ptr noundef nonnull @.str.40, ptr noundef nonnull @.str.41, i64 noundef 0) #5
  call void @llvm.memcpy.p0.p0.i64(ptr noundef nonnull align 8 dereferenceable(40) %.0, ptr noundef nonnull align 8 dereferenceable(40) %6, i64 40, i1 false), !tbaa.struct !20
  call void @llvm.lifetime.end.p0(i64 40, ptr nonnull %6) #5
  call void @llvm.lifetime.start.p0(i64 40, ptr nonnull %7) #5
  call void @OSSL_PARAM_construct_end(ptr dead_on_unwind nonnull writable sret(%struct.ossl_param_st) align 8 %7) #5
  call void @llvm.memcpy.p0.p0.i64(ptr noundef nonnull align 8 dereferenceable(40) %11, ptr noundef nonnull align 8 dereferenceable(40) %7, i64 40, i1 false), !tbaa.struct !20
  call void @llvm.lifetime.end.p0(i64 40, ptr nonnull %7) #5
  %12 = load ptr, ptr @lib_ctx, align 8, !tbaa !27
  %13 = call ptr @EVP_PKEY_CTX_new_from_name(ptr noundef %12, ptr noundef %0, ptr noundef null) #5
  %14 = call i32 @test_ptr(ptr noundef nonnull @.str.29, i32 noundef 42, ptr noundef nonnull @.str.42, ptr noundef %13) #5
  %.not11 = icmp eq i32 %14, 0
  br i1 %.not11, label %24, label %15

15:                                               ; preds = %10
  %16 = call i32 @EVP_PKEY_keygen_init(ptr noundef %13) #5
  %17 = call i32 @test_int_eq(ptr noundef nonnull @.str.29, i32 noundef 43, ptr noundef nonnull @.str.43, ptr noundef nonnull @.str.44, i32 noundef %16, i32 noundef 1) #5
  %.not12 = icmp eq i32 %17, 0
  br i1 %.not12, label %24, label %18

18:                                               ; preds = %15
  %19 = call i32 @EVP_PKEY_CTX_set_params(ptr noundef %13, ptr noundef nonnull %5) #5
  %20 = call i32 @test_int_eq(ptr noundef nonnull @.str.29, i32 noundef 44, ptr noundef nonnull @.str.45, ptr noundef nonnull @.str.44, i32 noundef %19, i32 noundef 1) #5
  %.not13 = icmp eq i32 %20, 0
  br i1 %.not13, label %24, label %21

21:                                               ; preds = %18
  %22 = call i32 @EVP_PKEY_generate(ptr noundef %13, ptr noundef nonnull %4) #5
  %23 = call i32 @test_int_eq(ptr noundef nonnull @.str.29, i32 noundef 45, ptr noundef nonnull @.str.46, ptr noundef nonnull @.str.44, i32 noundef %22, i32 noundef 1) #5
  %.not14 = icmp eq i32 %23, 0
  br i1 %.not14, label %24, label %25

24:                                               ; preds = %21, %18, %15, %10
  store ptr null, ptr %4, align 8, !tbaa !16
  br label %25

25:                                               ; preds = %24, %21
  call void @EVP_PKEY_CTX_free(ptr noundef %13) #5
  %26 = load ptr, ptr %4, align 8, !tbaa !16
  call void @llvm.lifetime.end.p0(i64 120, ptr nonnull %5) #5
  call void @llvm.lifetime.end.p0(i64 8, ptr nonnull %4) #5
  ret ptr %26
}